target datalayout = "e-m:e-p270:32:32-p271:32:32-p272:64:64-i64:64-i128:128-f80:128-n8:16:32:64-S128"
target triple = "x86_64-pc-linux-gnu"

%"class.igl::opengl::ViewerCore" = type { i32, [12 x i8], %"class.Eigen::Matrix.3", %"class.Eigen::Matrix.12", i8, i8, i32, i32, i32, i32, i32, float, i32, [4 x i8], %"class.Eigen::Quaternion", float, float, i8, %"class.Eigen::Matrix.12", %"class.Eigen::Matrix.12", %"class.Eigen::Matrix.12", %"class.Eigen::Matrix.12", %"class.Eigen::Matrix.12", float, float, float, i8, i8, double, float, [12 x i8], %"class.Eigen::Matrix.3", %"class.Eigen::Matrix.22", %"class.Eigen::Matrix.22", %"class.Eigen::Matrix.22", %"class.Eigen::Matrix.22", %"class.Eigen::Matrix.22" }
%"class.Eigen::Quaternion" = type { %"class.Eigen::Matrix.3" }
%"class.Eigen::Matrix.12" = type { %"class.Eigen::PlainObjectBase.13" }
%"class.Eigen::PlainObjectBase.13" = type { %"class.Eigen::DenseStorage.20" }
%"class.Eigen::DenseStorage.20" = type { %"struct.Eigen::internal::plain_array.21" }
%"struct.Eigen::internal::plain_array.21" = type { [3 x float] }
%"class.Eigen::Matrix.3" = type { %"class.Eigen::PlainObjectBase.4" }
%"class.Eigen::PlainObjectBase.4" = type { %"class.Eigen::DenseStorage.11" }
%"class.Eigen::DenseStorage.11" = type { %"struct.Eigen::internal::plain_array" }
%"struct.Eigen::internal::plain_array" = type { [4 x float] }
%"class.Eigen::Matrix.22" = type { %"class.Eigen::PlainObjectBase.23" }
%"class.Eigen::PlainObjectBase.23" = type { %"class.Eigen::DenseStorage.30" }
%"class.Eigen::DenseStorage.30" = type { %"struct.Eigen::internal::plain_array.31" }
%"struct.Eigen::internal::plain_array.31" = type { [16 x float] }

@glad_glDeleteTextures = external global ptr, align 8
@glad_glDeleteFramebuffers = external global ptr, align 8
@glad_glDeleteRenderbuffers = external global ptr, align 8

; Function Attrs: mustprogress uwtable
define dso_local void @_ZN3igl6opengl10ViewerCore21delete_shadow_buffersEv(ptr noundef nonnull align 16 dereferenceable(544) %0) #3 align 2 {
  %2 = alloca ptr, align 8
  store ptr %0, ptr %2, align 8, !tbaa !15
  %3 = load ptr, ptr %2, align 8
  %4 = load ptr, ptr @glad_glDeleteTextures, align 8, !tbaa !89
  %5 = getelementptr inbounds nuw %"class.igl::opengl::ViewerCore", ptr %3, i32 0, i32 8
  call void %4(i32 noundef 1, ptr noundef %5)
  %6 = load ptr, ptr @glad_glDeleteFramebuffers, align 8, !tbaa !89
  %7 = getelementptr inbounds nuw %"class.igl::opengl::ViewerCore", ptr %3, i32 0, i32 9
  call void %6(i32 noundef 1, ptr noundef %7)
  %8 = load ptr, ptr @glad_glDeleteRenderbuffers, align 8, !tbaa !89
  %9 = getelementptr inbounds nuw %"class.igl::opengl::ViewerCore", ptr %3, i32 0, i32 10
  call void %8(i32 noundef 1, ptr noundef %9)
  ret void
}